target datalayout = "e-m:e-p270:32:32-p271:32:32-p272:64:64-i64:64-i128:128-f80:128-n8:16:32:64-S128"
target triple = "x86_64-pc-linux-gnu"

%struct.parms_atomic = type { i32, i32, i32, i32 }

; Function Attrs: nounwind uwtable
define internal void @H5Z__nbit_next_byte(ptr noundef %0, ptr noundef %1) #0 {
  %3 = alloca ptr, align 8
  %4 = alloca ptr, align 8
  store ptr %0, ptr %3, align 8, !tbaa !22
  store ptr %1, ptr %4, align 8, !tbaa !22
  %5 = load ptr, ptr %3, align 8, !tbaa !22
  %6 = load i64, ptr %5, align 8, !tbaa !3
  %7 = add i64 %6, 1
  store i64 %7, ptr %5, align 8, !tbaa !3
  %8 = load ptr, ptr %4, align 8, !tbaa !22
  store i64 8, ptr %8, align 8, !tbaa !3
  ret void
}

; Function Attrs: nounwind uwtable
define internal void @H5Z__nbit_compress_one_nooptype(ptr noundef %0, i64 noundef %1, ptr noundef %2, ptr noundef %3, ptr noundef %4, i32 noundef %5) #0 {
  %7 = alloca ptr, align 8
  %8 = alloca i64, align 8
  %9 = alloca ptr, align 8
  %10 = alloca ptr, align 8
  %11 = alloca ptr, align 8
  %12 = alloca i32, align 4
  %13 = alloca i32, align 4
  %14 = alloca i64, align 8
  %15 = alloca i8, align 1
  store ptr %0, ptr %7, align 8, !tbaa !25
  store i64 %1, ptr %8, align 8, !tbaa !3
  store ptr %2, ptr %9, align 8, !tbaa !25
  store ptr %3, ptr %10, align 8, !tbaa !22
  store ptr %4, ptr %11, align 8, !tbaa !22
  store i32 %5, ptr %12, align 4, !tbaa !7
  call void @llvm.lifetime.start.p0(i64 4, ptr %13) #6
  call void @llvm.lifetime.start.p0(i64 8, ptr %14) #6
  call void @llvm.lifetime.start.p0(i64 1, ptr %15) #6
  store i32 0, ptr %13, align 4, !tbaa !7
  br label %16

16:                                               ; preds = %84, %6
  %17 = load i32, ptr %13, align 4, !tbaa !7
  %18 = load i32, ptr %12, align 4, !tbaa !7
  %19 = icmp ult i32 %17, %18
  br i1 %19, label %20, label %87

20:                                               ; preds = %16
  %21 = load ptr, ptr %7, align 8, !tbaa !25
  %22 = load i64, ptr %8, align 8, !tbaa !3
  %23 = load i32, ptr %13, align 4, !tbaa !7
  %24 = zext i32 %23 to i64
  %25 = add i64 %22, %24
  %26 = getelementptr inbounds nuw i8, ptr %21, i64 %25
  %27 = load i8, ptr %26, align 1, !tbaa !49
  store i8 %27, ptr %15, align 1, !tbaa !49
  store i64 8, ptr %14, align 8, !tbaa !3
  %28 = load i8, ptr %15, align 1, !tbaa !49
  %29 = zext i8 %28 to i32
  %30 = load i64, ptr %14, align 8, !tbaa !3
  %31 = load ptr, ptr %11, align 8, !tbaa !22
  %32 = load i64, ptr %31, align 8, !tbaa !3
  %33 = sub i64 %30, %32
  %34 = trunc i64 %33 to i32
  %35 = ashr i32 %29, %34
  %36 = load ptr, ptr %11, align 8, !tbaa !22
  %37 = load i64, ptr %36, align 8, !tbaa !3
  %38 = trunc i64 %37 to i32
  %39 = shl i32 -1, %38
  %40 = xor i32 %39, -1
  %41 = and i32 %35, %40
  %42 = trunc i32 %41 to i8
  %43 = zext i8 %42 to i32
  %44 = load ptr, ptr %9, align 8, !tbaa !25
  %45 = load ptr, ptr %10, align 8, !tbaa !22
  %46 = load i64, ptr %45, align 8, !tbaa !3
  %47 = getelementptr inbounds nuw i8, ptr %44, i64 %46
  %48 = load i8, ptr %47, align 1, !tbaa !49
  %49 = zext i8 %48 to i32
  %50 = or i32 %49, %43
  %51 = trunc i32 %50 to i8
  store i8 %51, ptr %47, align 1, !tbaa !49
  %52 = load ptr, ptr %11, align 8, !tbaa !22
  %53 = load i64, ptr %52, align 8, !tbaa !3
  %54 = load i64, ptr %14, align 8, !tbaa !3
  %55 = sub i64 %54, %53
  store i64 %55, ptr %14, align 8, !tbaa !3
  %56 = load ptr, ptr %10, align 8, !tbaa !22
  %57 = load ptr, ptr %11, align 8, !tbaa !22
  call void @H5Z__nbit_next_byte(ptr noundef %56, ptr noundef %57)
  %58 = load i64, ptr %14, align 8, !tbaa !3
  %59 = icmp eq i64 %58, 0
  br i1 %59, label %60, label %61

60:                                               ; preds = %20
  br label %84

61:                                               ; preds = %20
  %62 = load i8, ptr %15, align 1, !tbaa !49
  %63 = zext i8 %62 to i32
  %64 = load i64, ptr %14, align 8, !tbaa !3
  %65 = trunc i64 %64 to i32
  %66 = shl i32 -1, %65
  %67 = xor i32 %66, -1
  %68 = and i32 %63, %67
  %69 = load ptr, ptr %11, align 8, !tbaa !22
  %70 = load i64, ptr %69, align 8, !tbaa !3
  %71 = load i64, ptr %14, align 8, !tbaa !3
  %72 = sub i64 %70, %71
  %73 = trunc i64 %72 to i32
  %74 = shl i32 %68, %73
  %75 = trunc i32 %74 to i8
  %76 = load ptr, ptr %9, align 8, !tbaa !25
  %77 = load ptr, ptr %10, align 8, !tbaa !22
  %78 = load i64, ptr %77, align 8, !tbaa !3
  %79 = getelementptr inbounds nuw i8, ptr %76, i64 %78
  store i8 %75, ptr %79, align 1, !tbaa !49
  %80 = load i64, ptr %14, align 8, !tbaa !3
  %81 = load ptr, ptr %11, align 8, !tbaa !22
  %82 = load i64, ptr %81, align 8, !tbaa !3
  %83 = sub i64 %82, %80
  store i64 %83, ptr %81, align 8, !tbaa !3
  br label %84

84:                                               ; preds = %61, %60
  %85 = load i32, ptr %13, align 4, !tbaa !7
  %86 = add i32 %85, 1
  store i32 %86, ptr %13, align 4, !tbaa !7
  br label %16, !llvm.loop !57

87:                                               ; preds = %16
  call void @llvm.lifetime.end.p0(i64 1, ptr %15) #6
  call void @llvm.lifetime.end.p0(i64 8, ptr %14) #6
  call void @llvm.lifetime.end.p0(i64 4, ptr %13) #6
  ret void
}

; Function Attrs: nounwind uwtable
define internal void @H5Z__nbit_compress_one_compound(ptr noundef %0, i64 noundef %1, ptr noundef %2, ptr noundef %3, ptr noundef %4, ptr noundef %5, ptr noundef %6) #0 {
  %8 = alloca ptr, align 8
  %9 = alloca i64, align 8
  %10 = alloca ptr, align 8
  %11 = alloca ptr, align 8
  %12 = alloca ptr, align 8
  %13 = alloca ptr, align 8
  %14 = alloca ptr, align 8
  %15 = alloca i32, align 4
  %16 = alloca i32, align 4
  %17 = alloca i32, align 4
  %18 = alloca i32, align 4
  %19 = alloca i32, align 4
  %20 = alloca %struct.parms_atomic, align 4
  store ptr %0, ptr %8, align 8, !tbaa !25
  store i64 %1, ptr %9, align 8, !tbaa !3
  store ptr %2, ptr %10, align 8, !tbaa !25
  store ptr %3, ptr %11, align 8, !tbaa !22
  store ptr %4, ptr %12, align 8, !tbaa !22
  store ptr %5, ptr %13, align 8, !tbaa !16
  store ptr %6, ptr %14, align 8, !tbaa !16
  call void @llvm.lifetime.start.p0(i64 4, ptr %15) #6
  call void @llvm.lifetime.start.p0(i64 4, ptr %16) #6
  call void @llvm.lifetime.start.p0(i64 4, ptr %17) #6
  call void @llvm.lifetime.start.p0(i64 4, ptr %18) #6
  call void @llvm.lifetime.start.p0(i64 4, ptr %19) #6
  call void @llvm.lifetime.start.p0(i64 16, ptr %20) #6
  %21 = load ptr, ptr %14, align 8, !tbaa !16
  %22 = load i32, ptr %21, align 4, !tbaa !7
  %23 = add i32 %22, 1
  store i32 %23, ptr %21, align 4, !tbaa !7
  %24 = load ptr, ptr %13, align 8, !tbaa !16
  %25 = load ptr, ptr %14, align 8, !tbaa !16
  %26 = load i32, ptr %25, align 4, !tbaa !7
  %27 = add i32 %26, 1
  store i32 %27, ptr %25, align 4, !tbaa !7
  %28 = zext i32 %26 to i64
  %29 = getelementptr inbounds nuw i32, ptr %24, i64 %28
  %30 = load i32, ptr %29, align 4, !tbaa !7
  store i32 %30, ptr %16, align 4, !tbaa !7
  store i32 0, ptr %15, align 4, !tbaa !7
  br label %31

31:                                               ; preds = %133, %7
  %32 = load i32, ptr %15, align 4, !tbaa !7
  %33 = load i32, ptr %16, align 4, !tbaa !7
  %34 = icmp ult i32 %32, %33
  br i1 %34, label %35, label %136

35:                                               ; preds = %31
  %36 = load ptr, ptr %13, align 8, !tbaa !16
  %37 = load ptr, ptr %14, align 8, !tbaa !16
  %38 = load i32, ptr %37, align 4, !tbaa !7
  %39 = add i32 %38, 1
  store i32 %39, ptr %37, align 4, !tbaa !7
  %40 = zext i32 %38 to i64
  %41 = getelementptr inbounds nuw i32, ptr %36, i64 %40
  %42 = load i32, ptr %41, align 4, !tbaa !7
  store i32 %42, ptr %17, align 4, !tbaa !7
  %43 = load ptr, ptr %13, align 8, !tbaa !16
  %44 = load ptr, ptr %14, align 8, !tbaa !16
  %45 = load i32, ptr %44, align 4, !tbaa !7
  %46 = add i32 %45, 1
  store i32 %46, ptr %44, align 4, !tbaa !7
  %47 = zext i32 %45 to i64
  %48 = getelementptr inbounds nuw i32, ptr %43, i64 %47
  %49 = load i32, ptr %48, align 4, !tbaa !7
  store i32 %49, ptr %18, align 4, !tbaa !7
  %50 = load i32, ptr %18, align 4, !tbaa !7
  switch i32 %50, label %131 [
    i32 1, label %51
    i32 2, label %92
    i32 3, label %103
    i32 4, label %114
  ]

51:                                               ; preds = %35
  %52 = load ptr, ptr %13, align 8, !tbaa !16
  %53 = load ptr, ptr %14, align 8, !tbaa !16
  %54 = load i32, ptr %53, align 4, !tbaa !7
  %55 = add i32 %54, 1
  store i32 %55, ptr %53, align 4, !tbaa !7
  %56 = zext i32 %54 to i64
  %57 = getelementptr inbounds nuw i32, ptr %52, i64 %56
  %58 = load i32, ptr %57, align 4, !tbaa !7
  %59 = getelementptr inbounds nuw %struct.parms_atomic, ptr %20, i32 0, i32 0
  store i32 %58, ptr %59, align 4, !tbaa !32
  %60 = load ptr, ptr %13, align 8, !tbaa !16
  %61 = load ptr, ptr %14, align 8, !tbaa !16
  %62 = load i32, ptr %61, align 4, !tbaa !7
  %63 = add i32 %62, 1
  store i32 %63, ptr %61, align 4, !tbaa !7
  %64 = zext i32 %62 to i64
  %65 = getelementptr inbounds nuw i32, ptr %60, i64 %64
  %66 = load i32, ptr %65, align 4, !tbaa !7
  %67 = getelementptr inbounds nuw %struct.parms_atomic, ptr %20, i32 0, i32 1
  store i32 %66, ptr %67, align 4, !tbaa !34
  %68 = load ptr, ptr %13, align 8, !tbaa !16
  %69 = load ptr, ptr %14, align 8, !tbaa !16
  %70 = load i32, ptr %69, align 4, !tbaa !7
  %71 = add i32 %70, 1
  store i32 %71, ptr %69, align 4, !tbaa !7
  %72 = zext i32 %70 to i64
  %73 = getelementptr inbounds nuw i32, ptr %68, i64 %72
  %74 = load i32, ptr %73, align 4, !tbaa !7
  %75 = getelementptr inbounds nuw %struct.parms_atomic, ptr %20, i32 0, i32 2
  store i32 %74, ptr %75, align 4, !tbaa !35
  %76 = load ptr, ptr %13, align 8, !tbaa !16
  %77 = load ptr, ptr %14, align 8, !tbaa !16
  %78 = load i32, ptr %77, align 4, !tbaa !7
  %79 = add i32 %78, 1
  store i32 %79, ptr %77, align 4, !tbaa !7
  %80 = zext i32 %78 to i64
  %81 = getelementptr inbounds nuw i32, ptr %76, i64 %80
  %82 = load i32, ptr %81, align 4, !tbaa !7
  %83 = getelementptr inbounds nuw %struct.parms_atomic, ptr %20, i32 0, i32 3
  store i32 %82, ptr %83, align 4, !tbaa !36
  %84 = load ptr, ptr %8, align 8, !tbaa !25
  %85 = load i64, ptr %9, align 8, !tbaa !3
  %86 = load i32, ptr %17, align 4, !tbaa !7
  %87 = zext i32 %86 to i64
  %88 = add i64 %85, %87
  %89 = load ptr, ptr %10, align 8, !tbaa !25
  %90 = load ptr, ptr %11, align 8, !tbaa !22
  %91 = load ptr, ptr %12, align 8, !tbaa !22
  call void @H5Z__nbit_compress_one_atomic(ptr noundef %84, i64 noundef %88, ptr noundef %89, ptr noundef %90, ptr noundef %91, ptr noundef %20)
  br label %132

92:                                               ; preds = %35
  %93 = load ptr, ptr %8, align 8, !tbaa !25
  %94 = load i64, ptr %9, align 8, !tbaa !3
  %95 = load i32, ptr %17, align 4, !tbaa !7
  %96 = zext i32 %95 to i64
  %97 = add i64 %94, %96
  %98 = load ptr, ptr %10, align 8, !tbaa !25
  %99 = load ptr, ptr %11, align 8, !tbaa !22
  %100 = load ptr, ptr %12, align 8, !tbaa !22
  %101 = load ptr, ptr %13, align 8, !tbaa !16
  %102 = load ptr, ptr %14, align 8, !tbaa !16
  call void @H5Z__nbit_compress_one_array(ptr noundef %93, i64 noundef %97, ptr noundef %98, ptr noundef %99, ptr noundef %100, ptr noundef %101, ptr noundef %102)
  br label %132

103:                                              ; preds = %35
  %104 = load ptr, ptr %8, align 8, !tbaa !25
  %105 = load i64, ptr %9, align 8, !tbaa !3
  %106 = load i32, ptr %17, align 4, !tbaa !7
  %107 = zext i32 %106 to i64
  %108 = add i64 %105, %107
  %109 = load ptr, ptr %10, align 8, !tbaa !25
  %110 = load ptr, ptr %11, align 8, !tbaa !22
  %111 = load ptr, ptr %12, align 8, !tbaa !22
  %112 = load ptr, ptr %13, align 8, !tbaa !16
  %113 = load ptr, ptr %14, align 8, !tbaa !16
  call void @H5Z__nbit_compress_one_compound(ptr noundef %104, i64 noundef %108, ptr noundef %109, ptr noundef %110, ptr noundef %111, ptr noundef %112, ptr noundef %113)
  br label %132

114:                                              ; preds = %35
  %115 = load ptr, ptr %13, align 8, !tbaa !16
  %116 = load ptr, ptr %14, align 8, !tbaa !16
  %117 = load i32, ptr %116, align 4, !tbaa !7
  %118 = add i32 %117, 1
  store i32 %118, ptr %116, align 4, !tbaa !7
  %119 = zext i32 %117 to i64
  %120 = getelementptr inbounds nuw i32, ptr %115, i64 %119
  %121 = load i32, ptr %120, align 4, !tbaa !7
  store i32 %121, ptr %19, align 4, !tbaa !7
  %122 = load ptr, ptr %8, align 8, !tbaa !25
  %123 = load i64, ptr %9, align 8, !tbaa !3
  %124 = load i32, ptr %17, align 4, !tbaa !7
  %125 = zext i32 %124 to i64
  %126 = add i64 %123, %125
  %127 = load ptr, ptr %10, align 8, !tbaa !25
  %128 = load ptr, ptr %11, align 8, !tbaa !22
  %129 = load ptr, ptr %12, align 8, !tbaa !22
  %130 = load i32, ptr %19, align 4, !tbaa !7
  call void @H5Z__nbit_compress_one_nooptype(ptr noundef %122, i64 noundef %126, ptr noundef %127, ptr noundef %128, ptr noundef %129, i32 noundef %130)
  br label %132

131:                                              ; preds = %35
  br label %132

132:                                              ; preds = %131, %114, %103, %92, %51
  br label %133

133:                                              ; preds = %132
  %134 = load i32, ptr %15, align 4, !tbaa !7
  %135 = add i32 %134, 1
  store i32 %135, ptr %15, align 4, !tbaa !7
  br label %31, !llvm.loop !56

136:                                              ; preds = %31
  call void @llvm.lifetime.end.p0(i64 16, ptr %20) #6
  call void @llvm.lifetime.end.p0(i64 4, ptr %19) #6
  call void @llvm.lifetime.end.p0(i64 4, ptr %18) #6
  call void @llvm.lifetime.end.p0(i64 4, ptr %17) #6
  call void @llvm.lifetime.end.p0(i64 4, ptr %16) #6
  call void @llvm.lifetime.end.p0(i64 4, ptr %15) #6
  ret void
}