; Function Attrs: nofree nosync nounwind memory(argmem: readwrite) uwtable
define internal fastcc void @H5Z__nbit_compress_one_compound(ptr noundef readonly captures(none) %0, i64 noundef %1, ptr noundef nonnull captures(none) %2, ptr noundef nonnull captures(none) %3, ptr noundef nonnull captures(none) %4, ptr noundef readonly captures(none) %5, ptr noundef nonnull captures(none) %6) unnamed_addr #5 {
  %8 = alloca %struct.parms_atomic, align 4
  call void @llvm.lifetime.start.p0(i64 16, ptr nonnull %8) #8
  %9 = load i32, ptr %6, align 4, !tbaa !12
  %10 = add i32 %9, 1
  %11 = add i32 %9, 2
  store i32 %11, ptr %6, align 4, !tbaa !12
  %12 = zext i32 %10 to i64
  %13 = getelementptr inbounds nuw i32, ptr %5, i64 %12
  %14 = load i32, ptr %13, align 4, !tbaa !12
  %.not = icmp eq i32 %14, 0
  br i1 %.not, label %._crit_edge, label %.lr.ph

.lr.ph:                                           ; preds = %7
  %15 = getelementptr i8, ptr %0, i64 %1
  %16 = getelementptr inbounds nuw i8, ptr %8, i64 4
  %17 = getelementptr inbounds nuw i8, ptr %8, i64 8
  %18 = getelementptr inbounds nuw i8, ptr %8, i64 12
  br label %19

19:                                               ; preds = %.lr.ph, %H5Z__nbit_compress_one_nooptype.exit
  %.049 = phi i32 [ 0, %.lr.ph ], [ %96, %H5Z__nbit_compress_one_nooptype.exit ]
  %20 = load i32, ptr %6, align 4, !tbaa !12
  %21 = add i32 %20, 1
  store i32 %21, ptr %6, align 4, !tbaa !12
  %22 = zext i32 %20 to i64
  %23 = getelementptr inbounds nuw i32, ptr %5, i64 %22
  %24 = load i32, ptr %23, align 4, !tbaa !12
  %25 = add i32 %20, 2
  store i32 %25, ptr %6, align 4, !tbaa !12
  %26 = zext i32 %21 to i64
  %27 = getelementptr inbounds nuw i32, ptr %5, i64 %26
  %28 = load i32, ptr %27, align 4, !tbaa !12
  switch i32 %28, label %H5Z__nbit_compress_one_nooptype.exit [
    i32 1, label %29
    i32 2, label %48
    i32 3, label %51
    i32 4, label %54
  ]

29:                                               ; preds = %19
  %30 = add i32 %20, 3
  store i32 %30, ptr %6, align 4, !tbaa !12
  %31 = zext i32 %25 to i64
  %32 = getelementptr inbounds nuw i32, ptr %5, i64 %31
  %33 = load i32, ptr %32, align 4, !tbaa !12
  store i32 %33, ptr %8, align 4, !tbaa !16
  %34 = add i32 %20, 4
  store i32 %34, ptr %6, align 4, !tbaa !12
  %35 = zext i32 %30 to i64
  %36 = getelementptr inbounds nuw i32, ptr %5, i64 %35
  %37 = load i32, ptr %36, align 4, !tbaa !12
  store i32 %37, ptr %16, align 4, !tbaa !18
  %38 = add i32 %20, 5
  store i32 %38, ptr %6, align 4, !tbaa !12
  %39 = zext i32 %34 to i64
  %40 = getelementptr inbounds nuw i32, ptr %5, i64 %39
  %41 = load i32, ptr %40, align 4, !tbaa !12
  store i32 %41, ptr %17, align 4, !tbaa !19
  %42 = add i32 %20, 6
  store i32 %42, ptr %6, align 4, !tbaa !12
  %43 = zext i32 %38 to i64
  %44 = getelementptr inbounds nuw i32, ptr %5, i64 %43
  %45 = load i32, ptr %44, align 4, !tbaa !12
  store i32 %45, ptr %18, align 4, !tbaa !20
  %46 = zext i32 %24 to i64
  %47 = add i64 %1, %46
  call fastcc void @H5Z__nbit_compress_one_atomic(ptr noundef %0, i64 noundef %47, ptr noundef %2, ptr noundef %3, ptr noundef %4, ptr noundef %8)
  br label %H5Z__nbit_compress_one_nooptype.exit

48:                                               ; preds = %19
  %49 = zext i32 %24 to i64
  %50 = add i64 %1, %49
  tail call fastcc void @H5Z__nbit_compress_one_array(ptr noundef %0, i64 noundef %50, ptr noundef %2, ptr noundef %3, ptr noundef %4, ptr noundef nonnull %5, ptr noundef %6)
  br label %H5Z__nbit_compress_one_nooptype.exit

51:                                               ; preds = %19
  %52 = zext i32 %24 to i64
  %53 = add i64 %1, %52
  tail call fastcc void @H5Z__nbit_compress_one_compound(ptr noundef %0, i64 noundef %53, ptr noundef %2, ptr noundef %3, ptr noundef %4, ptr noundef nonnull %5, ptr noundef %6)
  br label %H5Z__nbit_compress_one_nooptype.exit

54:                                               ; preds = %19
  %55 = add i32 %20, 3
  store i32 %55, ptr %6, align 4, !tbaa !12
  %56 = zext i32 %25 to i64
  %57 = getelementptr inbounds nuw i32, ptr %5, i64 %56
  %58 = load i32, ptr %57, align 4, !tbaa !12
  %.not.i = icmp eq i32 %58, 0
  br i1 %.not.i, label %H5Z__nbit_compress_one_nooptype.exit, label %.lr.ph.i

.lr.ph.i:                                         ; preds = %54
  %59 = zext i32 %24 to i64
  %60 = getelementptr i8, ptr %15, i64 %59
  %wide.trip.count.i = zext i32 %58 to i64
  %.pre.i = load i64, ptr %4, align 8, !tbaa !10
  br label %61

61:                                               ; preds = %94, %.lr.ph.i
  %62 = phi i64 [ %.pre.i, %.lr.ph.i ], [ %95, %94 ]
  %indvars.iv.i = phi i64 [ 0, %.lr.ph.i ], [ %indvars.iv.next.i, %94 ]
  %63 = getelementptr i8, ptr %60, i64 %indvars.iv.i
  %64 = load i8, ptr %63, align 1, !tbaa !30
  %65 = zext i8 %64 to i32
  %66 = trunc i64 %62 to i32
  %67 = sub i32 8, %66
  %68 = lshr i32 %65, %67
  %69 = shl nsw i32 -1, %66
  %70 = xor i32 %69, -1
  %71 = and i32 %68, %70
  %72 = load i64, ptr %3, align 8, !tbaa !10
  %73 = getelementptr inbounds nuw i8, ptr %2, i64 %72
  %74 = load i8, ptr %73, align 1, !tbaa !30
  %75 = trunc nuw i32 %71 to i8
  %76 = or i8 %74, %75
  store i8 %76, ptr %73, align 1, !tbaa !30
  %77 = load i64, ptr %4, align 8, !tbaa !10
  %78 = load i64, ptr %3, align 8, !tbaa !10
  %79 = add i64 %78, 1
  store i64 %79, ptr %3, align 8, !tbaa !10
  store i64 8, ptr %4, align 8, !tbaa !10
  %80 = icmp eq i64 %77, 8
  br i1 %80, label %94, label %81

81:                                               ; preds = %61
  %82 = sub i64 8, %77
  %83 = trunc i64 %82 to i32
  %84 = shl nsw i32 -1, %83
  %85 = xor i32 %84, -1
  %86 = and i32 %85, %65
  %87 = trunc i64 %77 to i32
  %88 = shl i32 %86, %87
  %89 = trunc i32 %88 to i8
  %90 = load i64, ptr %3, align 8, !tbaa !10
  %91 = getelementptr inbounds nuw i8, ptr %2, i64 %90
  store i8 %89, ptr %91, align 1, !tbaa !30
  %92 = load i64, ptr %4, align 8, !tbaa !10
  %93 = sub i64 %92, %82
  store i64 %93, ptr %4, align 8, !tbaa !10
  br label %94

94:                                               ; preds = %81, %61
  %95 = phi i64 [ 8, %61 ], [ %93, %81 ]
  %indvars.iv.next.i = add nuw nsw i64 %indvars.iv.i, 1
  %exitcond.not.i = icmp eq i64 %indvars.iv.next.i, %wide.trip.count.i
  br i1 %exitcond.not.i, label %H5Z__nbit_compress_one_nooptype.exit, label %61, !llvm.loop !43

H5Z__nbit_compress_one_nooptype.exit:             ; preds = %94, %54, %29, %48, %51, %19
  %96 = add nuw i32 %.049, 1
  %exitcond.not = icmp eq i32 %96, %14
  br i1 %exitcond.not, label %._crit_edge, label %19, !llvm.loop !44

._crit_edge:                                      ; preds = %H5Z__nbit_compress_one_nooptype.exit, %7
  call void @llvm.lifetime.end.p0(i64 16, ptr nonnull %8) #8
  ret void
}